ccopy_reg
_reconstructor
p0
(cargparse
Namespace
p1
c__builtin__
object
p2
Ntp3
Rp4
(dp5
S'grad_clip'
p6
F10.0
sS'rnn_size'
p7
I128
sS'embedding_size'
p8
I64
sS'grid_size'
p9
I2
sS'dtype'
p10
S'train'
p11
sS'learning_rate'
p12
F0.003
sS'num_layers'
p13
I1
sS'seq_length'
p14
I5
sS'maxNumPeds'
p15
I27
sS'decay_rate'
p16
F0.95
sS'leaveDataset'
p17
I5
sS'batch_size'
p18
I10
sS'num_epochs'
p19
I20
sS'model'
p20
S'lstm'
p21
sS'save_every'
p22
I1
sS'keep_prob'
p23
F0.8
sS'neighborhood_size'
p24
I32
sb.