ccopy_reg
_reconstructor
p0
(cargparse
Namespace
p1
c__builtin__
object
p2
Ntp3
Rp4
(dp5
S'grad_clip'
p6
F10.0
sS'rnn_size'
p7
I128
sS'embedding_size'
p8
I128
sS'learning_rate'
p9
F0.003
sS'num_layers'
p10
I1
sS'seq_length'
p11
I10
sS'decay_rate'
p12
F0.95
sS'leaveDataset'
p13
I1
sS'batch_size'
p14
I50
sS'num_epochs'
p15
I100
sS'model'
p16
S'lstm'
p17
sS'save_every'
p18
I500
sS'keep_prob'
p19
F0.8
sb.